; Function Attrs: mustprogress nounwind uwtable
define void @_ZN18ColoringRulesModelD2Ev(ptr noundef nonnull align 8 dereferenceable(88) %0) unnamed_addr #2 align 2 personality ptr @__gxx_personality_v0 {
  store ptr getelementptr inbounds ({ [51 x ptr] }, ptr @_ZTV18ColoringRulesModel, i64 0, i32 0, i64 2), ptr %0, align 8
  %2 = getelementptr inbounds i8, ptr %0, i64 16
  %3 = load ptr, ptr %2, align 8
  %4 = icmp eq ptr %3, null
  br i1 %4, label %9, label %5

5:                                                ; preds = %1
  %6 = load ptr, ptr %3, align 8
  %7 = getelementptr inbounds i8, ptr %6, i64 8
  %8 = load ptr, ptr %7, align 8
  tail call void %8(ptr noundef nonnull align 8 dereferenceable(128) %3) #18
  br label %9

9:                                                ; preds = %5, %1
  %10 = getelementptr inbounds i8, ptr %0, i64 24
  invoke void @color_filter_list_delete(ptr noundef nonnull %10)
          to label %11 unwind label %17

11:                                               ; preds = %9
  %12 = getelementptr inbounds i8, ptr %0, i64 64
  %13 = load ptr, ptr %12, align 8
  %.not.i.i.i = icmp eq ptr %13, null
  br i1 %.not.i.i.i, label %_ZN5QListIiED2Ev.exit, label %_ZN17QArrayDataPointerIiE5derefEv.exit.i.i

_ZN17QArrayDataPointerIiE5derefEv.exit.i.i:       ; preds = %11
  %14 = atomicrmw sub ptr %13, i32 1 seq_cst, align 4
  %.not.i.i = icmp eq i32 %14, 1
  br i1 %.not.i.i, label %15, label %_ZN5QListIiED2Ev.exit

15:                                               ; preds = %_ZN17QArrayDataPointerIiE5derefEv.exit.i.i
  %16 = load ptr, ptr %12, align 8
  tail call void @_ZN10QArrayData10deallocateEPS_xx(ptr noundef %16, i64 noundef 4, i64 noundef 8) #18
  br label %_ZN5QListIiED2Ev.exit

_ZN5QListIiED2Ev.exit:                            ; preds = %11, %_ZN17QArrayDataPointerIiE5derefEv.exit.i.i, %15
  tail call void @_ZN18QAbstractItemModelD2Ev(ptr noundef nonnull align 8 dereferenceable(16) %0) #18
  ret void

17:                                               ; preds = %9
  %18 = landingpad { ptr, i32 }
          catch ptr null
  %19 = extractvalue { ptr, i32 } %18, 0
  tail call void @__clang_call_terminate(ptr %19) #22
  unreachable
}